target datalayout = "e-m:e-p270:32:32-p271:32:32-p272:64:64-i64:64-i128:128-f80:128-n8:16:32:64-S128"
target triple = "x86_64-unknown-linux-gnu"

@_ZZN4absl12crc_internal3CRC6Crc32cEvE9singleton = internal global ptr null, align 8
@_ZGVZN4absl12crc_internal3CRC6Crc32cEvE9singleton = internal global i64 0, align 8

; Function Attrs: mustprogress uwtable
define dso_local noundef ptr @_ZN4absl12crc_internal3CRC6Crc32cEv() #1 align 2 personality ptr @__gxx_personality_v0 {
entry:
  %exn.slot = alloca ptr, align 8
  %ehselector.slot = alloca i32, align 4
  %0 = load atomic i8, ptr @_ZGVZN4absl12crc_internal3CRC6Crc32cEvE9singleton acquire, align 8
  %guard.uninitialized = icmp eq i8 %0, 0
  br i1 %guard.uninitialized, label %init.check, label %init.end, !prof !26

init.check:                                       ; preds = %entry
  %1 = call i32 @__cxa_guard_acquire(ptr @_ZGVZN4absl12crc_internal3CRC6Crc32cEvE9singleton) #7
  %tobool = icmp ne i32 %1, 0
  br i1 %tobool, label %init, label %init.end

init:                                             ; preds = %init.check
  %call = invoke noundef ptr @_ZN4absl12crc_internal7CRCImpl11NewInternalEv()
          to label %invoke.cont unwind label %lpad

invoke.cont:                                      ; preds = %init
  store ptr %call, ptr @_ZZN4absl12crc_internal3CRC6Crc32cEvE9singleton, align 8
  call void @__cxa_guard_release(ptr @_ZGVZN4absl12crc_internal3CRC6Crc32cEvE9singleton) #7
  br label %init.end

init.end:                                         ; preds = %invoke.cont, %init.check, %entry
  %2 = load ptr, ptr @_ZZN4absl12crc_internal3CRC6Crc32cEvE9singleton, align 8
  ret ptr %2

lpad:                                             ; preds = %init
  %3 = landingpad { ptr, i32 }
          cleanup
  %4 = extractvalue { ptr, i32 } %3, 0
  store ptr %4, ptr %exn.slot, align 8
  %5 = extractvalue { ptr, i32 } %3, 1
  store i32 %5, ptr %ehselector.slot, align 4
  call void @__cxa_guard_abort(ptr @_ZGVZN4absl12crc_internal3CRC6Crc32cEvE9singleton) #7
  br label %eh.resume

eh.resume:                                        ; preds = %lpad
  %exn = load ptr, ptr %exn.slot, align 8
  %sel = load i32, ptr %ehselector.slot, align 4
  %lpad.val = insertvalue { ptr, i32 } poison, ptr %exn, 0
  %lpad.val1 = insertvalue { ptr, i32 } %lpad.val, i32 %sel, 1
  resume { ptr, i32 } %lpad.val1
}