; Function Attrs: mustprogress uwtable
define dso_local noundef ptr @_ZN4absl12crc_internal3CRC6Crc32cEv() local_unnamed_addr #1 align 2 personality ptr @__gxx_personality_v0 {
entry:
  %0 = load atomic i8, ptr @_ZGVZN4absl12crc_internal3CRC6Crc32cEvE9singleton acquire, align 8
  %guard.uninitialized = icmp eq i8 %0, 0
  br i1 %guard.uninitialized, label %init.check, label %init.end, !prof !22

init.check:                                       ; preds = %entry
  %1 = tail call i32 @__cxa_guard_acquire(ptr nonnull @_ZGVZN4absl12crc_internal3CRC6Crc32cEvE9singleton) #22
  %tobool.not = icmp eq i32 %1, 0
  br i1 %tobool.not, label %init.end, label %init

init:                                             ; preds = %init.check
  %call = invoke noundef ptr @_ZN4absl12crc_internal7CRCImpl11NewInternalEv()
          to label %invoke.cont unwind label %lpad

invoke.cont:                                      ; preds = %init
  store ptr %call, ptr @_ZZN4absl12crc_internal3CRC6Crc32cEvE9singleton, align 8
  tail call void @__cxa_guard_release(ptr nonnull @_ZGVZN4absl12crc_internal3CRC6Crc32cEvE9singleton) #22
  br label %init.end

init.end:                                         ; preds = %invoke.cont, %init.check, %entry
  %2 = load ptr, ptr @_ZZN4absl12crc_internal3CRC6Crc32cEvE9singleton, align 8
  ret ptr %2

lpad:                                             ; preds = %init
  %3 = landingpad { ptr, i32 }
          cleanup
  tail call void @__cxa_guard_abort(ptr nonnull @_ZGVZN4absl12crc_internal3CRC6Crc32cEvE9singleton) #22
  resume { ptr, i32 } %3
}